target datalayout = "e-m:e-p270:32:32-p271:32:32-p272:64:64-i64:64-i128:128-f80:128-n8:16:32:64-S128"
target triple = "x86_64-unknown-linux-gnu"

%"class.llvh::SmallVectorBase" = type { ptr, i32, i32 }

@__const._ZN4llvh3sys4pathL13getEnvTempDirEv.EnvironmentVariables = private unnamed_addr constant [4 x ptr] [ptr @.str.18, ptr @.str.19, ptr @.str.20, ptr @.str.21], align 16
@.str.22 = private unnamed_addr constant [5 x i8] c"/tmp\00", align 1

; Function Attrs: mustprogress nounwind uwtable
define linkonce_odr hidden noundef ptr @_ZNK4llvh25SmallVectorTemplateCommonIcvE10getFirstElEv(ptr noundef nonnull align 8 dereferenceable(16) %this) #0 comdat align 2 {
entry:
  %this.addr = alloca ptr, align 8
  store ptr %this, ptr %this.addr, align 8
  %this1 = load ptr, ptr %this.addr, align 8
  %add.ptr = getelementptr inbounds i8, ptr %this1, i64 16
  ret ptr %add.ptr
}

; Function Attrs: mustprogress nounwind uwtable
define linkonce_odr hidden void @_ZN4llvh25SmallVectorTemplateCommonIcvE8grow_podEmm(ptr noundef nonnull align 8 dereferenceable(16) %this, i64 noundef %MinCapacity, i64 noundef %TSize) #0 comdat align 2 {
entry:
  %this.addr = alloca ptr, align 8
  %MinCapacity.addr = alloca i64, align 8
  %TSize.addr = alloca i64, align 8
  store ptr %this, ptr %this.addr, align 8
  store i64 %MinCapacity, ptr %MinCapacity.addr, align 8
  store i64 %TSize, ptr %TSize.addr, align 8
  %this1 = load ptr, ptr %this.addr, align 8
  %call = call noundef ptr @_ZNK4llvh25SmallVectorTemplateCommonIcvE10getFirstElEv(ptr noundef nonnull align 8 dereferenceable(16) %this1)
  %0 = load i64, ptr %MinCapacity.addr, align 8
  %1 = load i64, ptr %TSize.addr, align 8
  call void @_ZN4llvh15SmallVectorBase8grow_podEPvmm(ptr noundef nonnull align 8 dereferenceable(16) %this1, ptr noundef %call, i64 noundef %0, i64 noundef %1)
  ret void
}

; Function Attrs: mustprogress nounwind uwtable
define linkonce_odr noundef i64 @_ZSt10__distanceIPKcENSt15iterator_traitsIT_E15difference_typeES3_S3_St26random_access_iterator_tag(ptr noundef %__first, ptr noundef %__last) #0 comdat {
entry:
  %__first.addr = alloca ptr, align 8
  %__last.addr = alloca ptr, align 8
  store ptr %__first, ptr %__first.addr, align 8
  store ptr %__last, ptr %__last.addr, align 8
  %0 = load ptr, ptr %__last.addr, align 8
  %1 = load ptr, ptr %__first.addr, align 8
  %sub.ptr.lhs.cast = ptrtoint ptr %0 to i64
  %sub.ptr.rhs.cast = ptrtoint ptr %1 to i64
  %sub.ptr.sub = sub i64 %sub.ptr.lhs.cast, %sub.ptr.rhs.cast
  ret i64 %sub.ptr.sub
}

; Function Attrs: mustprogress nounwind uwtable
define linkonce_odr void @_ZSt19__iterator_categoryIPKcENSt15iterator_traitsIT_E17iterator_categoryERKS3_(ptr noundef nonnull align 8 dereferenceable(8) %0) #0 comdat {
entry:
  %.addr = alloca ptr, align 8
  store ptr %0, ptr %.addr, align 8
  ret void
}

; Function Attrs: mustprogress nounwind uwtable
define linkonce_odr hidden void @_ZN4llvh15SmallVectorBase8set_sizeEm(ptr noundef nonnull align 8 dereferenceable(16) %this, i64 noundef %Size) #0 comdat align 2 {
entry:
  %this.addr = alloca ptr, align 8
  %Size.addr = alloca i64, align 8
  store ptr %this, ptr %this.addr, align 8
  store i64 %Size, ptr %Size.addr, align 8
  %this1 = load ptr, ptr %this.addr, align 8
  %0 = load i64, ptr %Size.addr, align 8
  %conv = trunc i64 %0 to i32
  %Size2 = getelementptr inbounds %"class.llvh::SmallVectorBase", ptr %this1, i32 0, i32 1
  store i32 %conv, ptr %Size2, align 8
  ret void
}

; Function Attrs: mustprogress nounwind uwtable
define linkonce_odr hidden void @_ZN4llvh23SmallVectorTemplateBaseIcLb1EE18uninitialized_copyIKccEEvPT_S5_PT0_PNSt9enable_ifIXsr3std7is_sameINSt12remove_constIS4_E4typeES6_EE5valueEvE4typeE(ptr noundef %I, ptr noundef %E, ptr noundef %Dest, ptr noundef %0) #0 comdat align 2 {
entry:
  %I.addr = alloca ptr, align 8
  %E.addr = alloca ptr, align 8
  %Dest.addr = alloca ptr, align 8
  %.addr = alloca ptr, align 8
  store ptr %I, ptr %I.addr, align 8
  store ptr %E, ptr %E.addr, align 8
  store ptr %Dest, ptr %Dest.addr, align 8
  store ptr %0, ptr %.addr, align 8
  %1 = load ptr, ptr %I.addr, align 8
  %2 = load ptr, ptr %E.addr, align 8
  %cmp = icmp ne ptr %1, %2
  br i1 %cmp, label %if.then, label %if.end

if.then:                                          ; preds = %entry
  %3 = load ptr, ptr %Dest.addr, align 8
  %4 = load ptr, ptr %I.addr, align 8
  %5 = load ptr, ptr %E.addr, align 8
  %6 = load ptr, ptr %I.addr, align 8
  %sub.ptr.lhs.cast = ptrtoint ptr %5 to i64
  %sub.ptr.rhs.cast = ptrtoint ptr %6 to i64
  %sub.ptr.sub = sub i64 %sub.ptr.lhs.cast, %sub.ptr.rhs.cast
  %mul = mul i64 %sub.ptr.sub, 1
  call void @llvm.memcpy.p0.p0.i64(ptr align 1 %3, ptr align 1 %4, i64 %mul, i1 false)
  br label %if.end

if.end:                                           ; preds = %if.then, %entry
  ret void
}

; Function Attrs: mustprogress nounwind uwtable
define linkonce_odr hidden void @_ZN4llvh23SmallVectorTemplateBaseIcLb1EE4growEm(ptr noundef nonnull align 8 dereferenceable(16) %this, i64 noundef %MinSize) #0 comdat align 2 {
entry:
  %this.addr = alloca ptr, align 8
  %MinSize.addr = alloca i64, align 8
  store ptr %this, ptr %this.addr, align 8
  store i64 %MinSize, ptr %MinSize.addr, align 8
  %this1 = load ptr, ptr %this.addr, align 8
  %0 = load i64, ptr %MinSize.addr, align 8
  call void @_ZN4llvh25SmallVectorTemplateCommonIcvE8grow_podEmm(ptr noundef nonnull align 8 dereferenceable(16) %this1, i64 noundef %0, i64 noundef 1)
  ret void
}

; Function Attrs: mustprogress nounwind uwtable
define linkonce_odr hidden noundef i64 @_ZNK4llvh15SmallVectorBase8capacityEv(ptr noundef nonnull align 8 dereferenceable(16) %this) #0 comdat align 2 {
entry:
  %this.addr = alloca ptr, align 8
  store ptr %this, ptr %this.addr, align 8
  %this1 = load ptr, ptr %this.addr, align 8
  %Capacity = getelementptr inbounds %"class.llvh::SmallVectorBase", ptr %this1, i32 0, i32 2
  %0 = load i32, ptr %Capacity, align 4
  %conv = zext i32 %0 to i64
  ret i64 %conv
}

; Function Attrs: mustprogress nounwind uwtable
define linkonce_odr noundef i64 @_ZSt8distanceIPKcENSt15iterator_traitsIT_E15difference_typeES3_S3_(ptr noundef %__first, ptr noundef %__last) #0 comdat {
entry:
  %__first.addr = alloca ptr, align 8
  %__last.addr = alloca ptr, align 8
  store ptr %__first, ptr %__first.addr, align 8
  store ptr %__last, ptr %__last.addr, align 8
  %0 = load ptr, ptr %__first.addr, align 8
  %1 = load ptr, ptr %__last.addr, align 8
  call void @_ZSt19__iterator_categoryIPKcENSt15iterator_traitsIT_E17iterator_categoryERKS3_(ptr noundef nonnull align 8 dereferenceable(8) %__first.addr)
  %call = call noundef i64 @_ZSt10__distanceIPKcENSt15iterator_traitsIT_E15difference_typeES3_S3_St26random_access_iterator_tag(ptr noundef %0, ptr noundef %1)
  ret i64 %call
}

; Function Attrs: mustprogress nounwind uwtable
define linkonce_odr hidden void @_ZN4llvh23SmallVectorTemplateBaseIcLb1EE13destroy_rangeEPcS2_(ptr noundef %0, ptr noundef %1) #0 comdat align 2 {
entry:
  %.addr = alloca ptr, align 8
  %.addr1 = alloca ptr, align 8
  store ptr %0, ptr %.addr, align 8
  store ptr %1, ptr %.addr1, align 8
  ret void
}

; Function Attrs: mustprogress nounwind uwtable
define linkonce_odr hidden noundef i64 @_ZNK4llvh15SmallVectorBase4sizeEv(ptr noundef nonnull align 8 dereferenceable(16) %this) #0 comdat align 2 {
entry:
  %this.addr = alloca ptr, align 8
  store ptr %this, ptr %this.addr, align 8
  %this1 = load ptr, ptr %this.addr, align 8
  %Size = getelementptr inbounds %"class.llvh::SmallVectorBase", ptr %this1, i32 0, i32 1
  %0 = load i32, ptr %Size, align 8
  %conv = zext i32 %0 to i64
  ret i64 %conv
}

; Function Attrs: mustprogress nounwind uwtable
define internal noundef ptr @_ZN4llvh3sys4pathL17getDefaultTempDirEb(i1 noundef zeroext %ErasedOnReboot) #0 {
entry:
  %ErasedOnReboot.addr = alloca i8, align 1
  %frombool = zext i1 %ErasedOnReboot to i8
  store i8 %frombool, ptr %ErasedOnReboot.addr, align 1
  ret ptr @.str.22
}

; Function Attrs: mustprogress nounwind uwtable
define internal noundef zeroext i1 @_ZN4llvh3sys4pathL16getDarwinConfDirEbRNS_15SmallVectorImplIcEE(i1 noundef zeroext %TempDir, ptr noundef nonnull align 8 dereferenceable(16) %Result) #0 {
entry:
  %TempDir.addr = alloca i8, align 1
  %Result.addr = alloca ptr, align 8
  %frombool = zext i1 %TempDir to i8
  store i8 %frombool, ptr %TempDir.addr, align 1
  store ptr %Result, ptr %Result.addr, align 8
  ret i1 false
}

; Function Attrs: mustprogress nounwind uwtable
define linkonce_odr hidden void @_ZN4llvh15SmallVectorImplIcE6appendIPKcvEEvT_S5_(ptr noundef nonnull align 8 dereferenceable(16) %this, ptr noundef %in_start, ptr noundef %in_end) #0 comdat align 2 {
entry:
  %this.addr.i.i = alloca ptr, align 8
  %this.addr.i = alloca ptr, align 8
  %this.addr = alloca ptr, align 8
  %in_start.addr = alloca ptr, align 8
  %in_end.addr = alloca ptr, align 8
  %NumInputs = alloca i64, align 8
  store ptr %this, ptr %this.addr, align 8
  store ptr %in_start, ptr %in_start.addr, align 8
  store ptr %in_end, ptr %in_end.addr, align 8
  %this1 = load ptr, ptr %this.addr, align 8
  %0 = load ptr, ptr %in_start.addr, align 8
  %1 = load ptr, ptr %in_end.addr, align 8
  %call = call noundef i64 @_ZSt8distanceIPKcENSt15iterator_traitsIT_E15difference_typeES3_S3_(ptr noundef %0, ptr noundef %1)
  store i64 %call, ptr %NumInputs, align 8
  %2 = load i64, ptr %NumInputs, align 8
  %call2 = call noundef i64 @_ZNK4llvh15SmallVectorBase8capacityEv(ptr noundef nonnull align 8 dereferenceable(16) %this1)
  %call3 = call noundef i64 @_ZNK4llvh15SmallVectorBase4sizeEv(ptr noundef nonnull align 8 dereferenceable(16) %this1)
  %sub = sub i64 %call2, %call3
  %cmp = icmp ugt i64 %2, %sub
  br i1 %cmp, label %if.then, label %if.end

if.then:                                          ; preds = %entry
  %call4 = call noundef i64 @_ZNK4llvh15SmallVectorBase4sizeEv(ptr noundef nonnull align 8 dereferenceable(16) %this1)
  %3 = load i64, ptr %NumInputs, align 8
  %add = add i64 %call4, %3
  call void @_ZN4llvh23SmallVectorTemplateBaseIcLb1EE4growEm(ptr noundef nonnull align 8 dereferenceable(16) %this1, i64 noundef %add)
  br label %if.end

if.end:                                           ; preds = %if.then, %entry
  %4 = load ptr, ptr %in_start.addr, align 8
  %5 = load ptr, ptr %in_end.addr, align 8
  store ptr %this1, ptr %this.addr.i, align 8
  %this1.i = load ptr, ptr %this.addr.i, align 8
  store ptr %this1.i, ptr %this.addr.i.i, align 8
  %this1.i.i = load ptr, ptr %this.addr.i.i, align 8
  %6 = load ptr, ptr %this1.i.i, align 8
  %call2.i = call noundef i64 @_ZNK4llvh15SmallVectorBase4sizeEv(ptr noundef nonnull align 8 dereferenceable(16) %this1.i)
  %add.ptr.i = getelementptr inbounds i8, ptr %6, i64 %call2.i
  call void @_ZN4llvh23SmallVectorTemplateBaseIcLb1EE18uninitialized_copyIKccEEvPT_S5_PT0_PNSt9enable_ifIXsr3std7is_sameINSt12remove_constIS4_E4typeES6_EE5valueEvE4typeE(ptr noundef %4, ptr noundef %5, ptr noundef %add.ptr.i, ptr noundef null)
  %call6 = call noundef i64 @_ZNK4llvh15SmallVectorBase4sizeEv(ptr noundef nonnull align 8 dereferenceable(16) %this1)
  %7 = load i64, ptr %NumInputs, align 8
  %add7 = add i64 %call6, %7
  call void @_ZN4llvh15SmallVectorBase8set_sizeEm(ptr noundef nonnull align 8 dereferenceable(16) %this1, i64 noundef %add7)
  ret void
}

; Function Attrs: mustprogress nounwind uwtable
define internal noundef ptr @_ZN4llvh3sys4pathL13getEnvTempDirEv() #0 {
entry:
  %retval = alloca ptr, align 8
  %EnvironmentVariables = alloca [4 x ptr], align 16
  %__range2 = alloca ptr, align 8
  %__begin2 = alloca ptr, align 8
  %__end2 = alloca ptr, align 8
  %Env = alloca ptr, align 8
  %Dir = alloca ptr, align 8
  call void @llvm.memcpy.p0.p0.i64(ptr align 16 %EnvironmentVariables, ptr align 16 @__const._ZN4llvh3sys4pathL13getEnvTempDirEv.EnvironmentVariables, i64 32, i1 false)
  store ptr %EnvironmentVariables, ptr %__range2, align 8
  %0 = load ptr, ptr %__range2, align 8
  %arraydecay = getelementptr inbounds [4 x ptr], ptr %0, i64 0, i64 0
  store ptr %arraydecay, ptr %__begin2, align 8
  %1 = load ptr, ptr %__range2, align 8
  %arraydecay1 = getelementptr inbounds [4 x ptr], ptr %1, i64 0, i64 0
  %add.ptr = getelementptr inbounds ptr, ptr %arraydecay1, i64 4
  store ptr %add.ptr, ptr %__end2, align 8
  br label %for.cond

for.cond:                                         ; preds = %for.inc, %entry
  %2 = load ptr, ptr %__begin2, align 8
  %3 = load ptr, ptr %__end2, align 8
  %cmp = icmp ne ptr %2, %3
  br i1 %cmp, label %for.body, label %for.end

for.body:                                         ; preds = %for.cond
  %4 = load ptr, ptr %__begin2, align 8
  %5 = load ptr, ptr %4, align 8
  store ptr %5, ptr %Env, align 8
  %6 = load ptr, ptr %Env, align 8
  %call = call ptr @getenv(ptr noundef %6) #9
  store ptr %call, ptr %Dir, align 8
  %7 = load ptr, ptr %Dir, align 8
  %tobool = icmp ne ptr %7, null
  br i1 %tobool, label %if.then, label %if.end

if.then:                                          ; preds = %for.body
  %8 = load ptr, ptr %Dir, align 8
  store ptr %8, ptr %retval, align 8
  br label %return

if.end:                                           ; preds = %for.body
  br label %for.inc

for.inc:                                          ; preds = %if.end
  %9 = load ptr, ptr %__begin2, align 8
  %incdec.ptr = getelementptr inbounds ptr, ptr %9, i32 1
  store ptr %incdec.ptr, ptr %__begin2, align 8
  br label %for.cond

for.end:                                          ; preds = %for.cond
  store ptr null, ptr %retval, align 8
  br label %return

return:                                           ; preds = %for.end, %if.then
  %10 = load ptr, ptr %retval, align 8
  ret ptr %10
}

; Function Attrs: mustprogress nounwind uwtable
define linkonce_odr hidden void @_ZN4llvh15SmallVectorImplIcE5clearEv(ptr noundef nonnull align 8 dereferenceable(16) %this) #0 comdat align 2 {
entry:
  %this.addr.i.i = alloca ptr, align 8
  %this.addr.i3 = alloca ptr, align 8
  %this.addr.i = alloca ptr, align 8
  %this.addr = alloca ptr, align 8
  store ptr %this, ptr %this.addr, align 8
  %this1 = load ptr, ptr %this.addr, align 8
  store ptr %this1, ptr %this.addr.i, align 8
  %this1.i = load ptr, ptr %this.addr.i, align 8
  %0 = load ptr, ptr %this1.i, align 8
  store ptr %this1, ptr %this.addr.i3, align 8
  %this1.i4 = load ptr, ptr %this.addr.i3, align 8
  store ptr %this1.i4, ptr %this.addr.i.i, align 8
  %this1.i.i = load ptr, ptr %this.addr.i.i, align 8
  %1 = load ptr, ptr %this1.i.i, align 8
  %call2.i = call noundef i64 @_ZNK4llvh15SmallVectorBase4sizeEv(ptr noundef nonnull align 8 dereferenceable(16) %this1.i4)
  %add.ptr.i = getelementptr inbounds i8, ptr %1, i64 %call2.i
  call void @_ZN4llvh23SmallVectorTemplateBaseIcLb1EE13destroy_rangeEPcS2_(ptr noundef %0, ptr noundef %add.ptr.i)
  %Size = getelementptr inbounds %"class.llvh::SmallVectorBase", ptr %this1, i32 0, i32 1
  store i32 0, ptr %Size, align 8
  ret void
}

; Function Attrs: mustprogress nounwind uwtable
define hidden void @_ZN4llvh3sys4path21system_temp_directoryEbRNS_15SmallVectorImplIcEE(i1 noundef zeroext %ErasedOnReboot, ptr noundef nonnull align 8 dereferenceable(16) %Result) #0 {
entry:
  %ErasedOnReboot.addr = alloca i8, align 1
  %Result.addr = alloca ptr, align 8
  %RequestedDir = alloca ptr, align 8
  %RequestedDir9 = alloca ptr, align 8
  %frombool = zext i1 %ErasedOnReboot to i8
  store i8 %frombool, ptr %ErasedOnReboot.addr, align 1
  store ptr %Result, ptr %Result.addr, align 8
  %0 = load ptr, ptr %Result.addr, align 8
  call void @_ZN4llvh15SmallVectorImplIcE5clearEv(ptr noundef nonnull align 8 dereferenceable(16) %0)
  %1 = load i8, ptr %ErasedOnReboot.addr, align 1
  %tobool = trunc i8 %1 to i1
  br i1 %tobool, label %if.then, label %if.end4

if.then:                                          ; preds = %entry
  %call = call noundef ptr @_ZN4llvh3sys4pathL13getEnvTempDirEv()
  store ptr %call, ptr %RequestedDir, align 8
  %2 = load ptr, ptr %RequestedDir, align 8
  %tobool1 = icmp ne ptr %2, null
  br i1 %tobool1, label %if.then2, label %if.end

if.then2:                                         ; preds = %if.then
  %3 = load ptr, ptr %Result.addr, align 8
  %4 = load ptr, ptr %RequestedDir, align 8
  %5 = load ptr, ptr %RequestedDir, align 8
  %6 = load ptr, ptr %RequestedDir, align 8
  %call3 = call i64 @strlen(ptr noundef %6) #12
  %add.ptr = getelementptr inbounds i8, ptr %5, i64 %call3
  call void @_ZN4llvh15SmallVectorImplIcE6appendIPKcvEEvT_S5_(ptr noundef nonnull align 8 dereferenceable(16) %3, ptr noundef %4, ptr noundef %add.ptr)
  br label %return

if.end:                                           ; preds = %if.then
  br label %if.end4

if.end4:                                          ; preds = %if.end, %entry
  %7 = load i8, ptr %ErasedOnReboot.addr, align 1
  %tobool5 = trunc i8 %7 to i1
  %8 = load ptr, ptr %Result.addr, align 8
  %call6 = call noundef zeroext i1 @_ZN4llvh3sys4pathL16getDarwinConfDirEbRNS_15SmallVectorImplIcEE(i1 noundef zeroext %tobool5, ptr noundef nonnull align 8 dereferenceable(16) %8)
  br i1 %call6, label %if.then7, label %if.end8

if.then7:                                         ; preds = %if.end4
  br label %return

if.end8:                                          ; preds = %if.end4
  %9 = load i8, ptr %ErasedOnReboot.addr, align 1
  %tobool10 = trunc i8 %9 to i1
  %call11 = call noundef ptr @_ZN4llvh3sys4pathL17getDefaultTempDirEb(i1 noundef zeroext %tobool10)
  store ptr %call11, ptr %RequestedDir9, align 8
  %10 = load ptr, ptr %Result.addr, align 8
  %11 = load ptr, ptr %RequestedDir9, align 8
  %12 = load ptr, ptr %RequestedDir9, align 8
  %13 = load ptr, ptr %RequestedDir9, align 8
  %call12 = call i64 @strlen(ptr noundef %13) #12
  %add.ptr13 = getelementptr inbounds i8, ptr %12, i64 %call12
  call void @_ZN4llvh15SmallVectorImplIcE6appendIPKcvEEvT_S5_(ptr noundef nonnull align 8 dereferenceable(16) %10, ptr noundef %11, ptr noundef %add.ptr13)
  br label %return

return:                                           ; preds = %if.end8, %if.then7, %if.then2
  ret void
}