; Function Attrs: mustprogress nounwind uwtable
define hidden void @_ZN4llvh3sys4path21system_temp_directoryEbRNS_15SmallVectorImplIcEE(i1 noundef zeroext %ErasedOnReboot, ptr noundef nonnull align 8 dereferenceable(16) %Result) local_unnamed_addr #0 {
entry:
  %Size.i.i = getelementptr inbounds i8, ptr %Result, i64 8
  store i32 0, ptr %Size.i.i, align 8
  br i1 %ErasedOnReboot, label %for.body.i, label %if.end4

for.body.i:                                       ; preds = %entry, %for.body.i
  %__begin2.0.idx5.i = phi i64 [ %__begin2.0.add.i, %for.body.i ], [ 0, %entry ]
  %__begin2.0.ptr.i = getelementptr inbounds i8, ptr @__const._ZN4llvh3sys4pathL13getEnvTempDirEv.EnvironmentVariables, i64 %__begin2.0.idx5.i
  %0 = load ptr, ptr %__begin2.0.ptr.i, align 8
  %call.i = tail call ptr @getenv(ptr noundef %0) #29
  %tobool.not.i = icmp ne ptr %call.i, null
  %__begin2.0.add.i = add nuw nsw i64 %__begin2.0.idx5.i, 8
  %cmp.not.i = icmp eq i64 %__begin2.0.add.i, 32
  %or.cond.i = select i1 %tobool.not.i, i1 true, i1 %cmp.not.i
  br i1 %or.cond.i, label %_ZN4llvh3sys4pathL13getEnvTempDirEv.exit, label %for.body.i

_ZN4llvh3sys4pathL13getEnvTempDirEv.exit:         ; preds = %for.body.i
  %tobool1.not = icmp eq ptr %call.i, null
  br i1 %tobool1.not, label %if.end4, label %if.then2

if.then2:                                         ; preds = %_ZN4llvh3sys4pathL13getEnvTempDirEv.exit
  %call3 = tail call i64 @strlen(ptr noundef nonnull dereferenceable(1) %call.i) #28
  %Capacity.i.i = getelementptr inbounds i8, ptr %Result, i64 12
  %1 = load i32, ptr %Capacity.i.i, align 4
  %conv.i.i = zext i32 %1 to i64
  %cmp.i = icmp ugt i64 %call3, %conv.i.i
  br i1 %cmp.i, label %if.end.i.thread, label %if.end.i

if.end.i.thread:                                  ; preds = %if.then2
  %add.ptr.i.i.i.i = getelementptr inbounds i8, ptr %Result, i64 16
  tail call void @_ZN4llvh15SmallVectorBase8grow_podEPvmm(ptr noundef nonnull align 8 dereferenceable(16) %Result, ptr noundef nonnull %add.ptr.i.i.i.i, i64 noundef %call3, i64 noundef 1) #29
  %.pre13.pre.i = load i32, ptr %Size.i.i, align 8
  %2 = zext i32 %.pre13.pre.i to i64
  br label %if.then.i.i

if.end.i:                                         ; preds = %if.then2
  %cmp.not.i.i = icmp eq i64 %call3, 0
  br i1 %cmp.not.i.i, label %_ZN4llvh15SmallVectorImplIcE6appendIPKcvEEvT_S5_.exit, label %if.then.i.i

if.then.i.i:                                      ; preds = %if.end.i.thread, %if.end.i
  %.pre13.i32 = phi i64 [ %2, %if.end.i.thread ], [ 0, %if.end.i ]
  %3 = load ptr, ptr %Result, align 8
  %add.ptr.i.i = getelementptr inbounds i8, ptr %3, i64 %.pre13.i32
  tail call void @llvm.memcpy.p0.p0.i64(ptr align 1 %add.ptr.i.i, ptr nonnull align 1 %call.i, i64 %call3, i1 false)
  %.pre.i = load i32, ptr %Size.i.i, align 8
  br label %_ZN4llvh15SmallVectorImplIcE6appendIPKcvEEvT_S5_.exit

_ZN4llvh15SmallVectorImplIcE6appendIPKcvEEvT_S5_.exit: ; preds = %if.end.i, %if.then.i.i
  %4 = phi i32 [ 0, %if.end.i ], [ %.pre.i, %if.then.i.i ]
  %5 = trunc i64 %call3 to i32
  %conv.i12.i = add i32 %4, %5
  br label %return

if.end4:                                          ; preds = %_ZN4llvh3sys4pathL13getEnvTempDirEv.exit, %entry
  %Capacity.i.i12 = getelementptr inbounds i8, ptr %Result, i64 12
  %6 = load i32, ptr %Capacity.i.i12, align 4
  %cmp.i17 = icmp ult i32 %6, 4
  br i1 %cmp.i17, label %if.then.i25, label %_ZN4llvh15SmallVectorImplIcE6appendIPKcvEEvT_S5_.exit29

if.then.i25:                                      ; preds = %if.end4
  %add.ptr.i.i.i.i27 = getelementptr inbounds i8, ptr %Result, i64 16
  tail call void @_ZN4llvh15SmallVectorBase8grow_podEPvmm(ptr noundef nonnull align 8 dereferenceable(16) %Result, ptr noundef nonnull %add.ptr.i.i.i.i27, i64 noundef 4, i64 noundef 1) #29
  %.pre13.pre.i28 = load i32, ptr %Size.i.i, align 8
  %7 = zext i32 %.pre13.pre.i28 to i64
  br label %_ZN4llvh15SmallVectorImplIcE6appendIPKcvEEvT_S5_.exit29

_ZN4llvh15SmallVectorImplIcE6appendIPKcvEEvT_S5_.exit29: ; preds = %if.end4, %if.then.i25
  %.pre13.i19 = phi i64 [ %7, %if.then.i25 ], [ 0, %if.end4 ]
  %8 = load ptr, ptr %Result, align 8
  %add.ptr.i.i22 = getelementptr inbounds i8, ptr %8, i64 %.pre13.i19
  store i32 1886221359, ptr %add.ptr.i.i22, align 1
  %.pre.i23 = load i32, ptr %Size.i.i, align 8
  %conv.i12.i24 = add i32 %.pre.i23, 4
  br label %return

return:                                           ; preds = %_ZN4llvh15SmallVectorImplIcE6appendIPKcvEEvT_S5_.exit29, %_ZN4llvh15SmallVectorImplIcE6appendIPKcvEEvT_S5_.exit
  %storemerge = phi i32 [ %conv.i12.i, %_ZN4llvh15SmallVectorImplIcE6appendIPKcvEEvT_S5_.exit ], [ %conv.i12.i24, %_ZN4llvh15SmallVectorImplIcE6appendIPKcvEEvT_S5_.exit29 ]
  store i32 %storemerge, ptr %Size.i.i, align 8
  ret void
}